target datalayout = "e-m:e-p270:32:32-p271:32:32-p272:64:64-i64:64-i128:128-f80:128-n8:16:32:64-S128"
target triple = "x86_64-pc-linux-gnu"

%struct.sockaddr_storage = type { i16, [118 x i8], i64 }
%struct.sockaddr_un = type { i16, [108 x i8] }

; Function Attrs: nounwind uwtable
define dso_local void @sockaddr_from_unix_path(ptr dead_on_unwind noalias writable sret(%struct.sockaddr_storage) align 8 %0, ptr noundef %1) #0 {
  %3 = alloca ptr, align 8
  %4 = alloca ptr, align 8
  %5 = alloca i32, align 4
  store ptr %1, ptr %3, align 8
  call void @llvm.memset.p0.i64(ptr align 8 %0, i8 0, i64 128, i1 false)
  call void @llvm.lifetime.start.p0(i64 8, ptr %4) #9
  store ptr %0, ptr %4, align 8
  %6 = load ptr, ptr %3, align 8
  %7 = icmp ne ptr %6, null
  br i1 %7, label %9, label %8

8:                                                ; preds = %2
  store i32 1, ptr %5, align 4
  br label %21

9:                                                ; preds = %2
  %10 = load ptr, ptr %4, align 8
  %11 = getelementptr inbounds nuw %struct.sockaddr_un, ptr %10, i32 0, i32 1
  %12 = getelementptr inbounds [108 x i8], ptr %11, i64 0, i64 0
  %13 = load ptr, ptr %3, align 8
  %14 = call i64 @strlcpy(ptr noundef %12, ptr noundef %13, i64 noundef 108)
  %15 = load ptr, ptr %3, align 8
  %16 = call i64 @strlen(ptr noundef %15) #11
  %17 = icmp ne i64 %14, %16
  br i1 %17, label %18, label %19

18:                                               ; preds = %9
  store i32 1, ptr %5, align 4
  br label %21

19:                                               ; preds = %9
  %20 = getelementptr inbounds nuw %struct.sockaddr_storage, ptr %0, i32 0, i32 0
  store i16 1, ptr %20, align 8
  store i32 1, ptr %5, align 4
  br label %21

21:                                               ; preds = %19, %18, %8
  call void @llvm.lifetime.end.p0(i64 8, ptr %4) #9
  ret void
}