; Function Attrs: nofree nounwind uwtable
define dso_local void @sockaddr_from_unix_path(ptr dead_on_unwind noalias writable sret(%struct.sockaddr_storage) align 8 initializes((0, 128)) %0, ptr noundef %1) local_unnamed_addr #7 {
  tail call void @llvm.memset.p0.i64(ptr noundef nonnull align 8 dereferenceable(128) %0, i8 0, i64 128, i1 false)
  %.not = icmp eq ptr %1, null
  br i1 %.not, label %8, label %3

3:                                                ; preds = %2
  %4 = getelementptr inbounds nuw i8, ptr %0, i64 2
  %5 = tail call i64 @strlcpy(ptr noundef nonnull dereferenceable(1) %4, ptr noundef nonnull dereferenceable(1) %1, i64 noundef 108) #11
  %6 = tail call i64 @strlen(ptr noundef nonnull dereferenceable(1) %1) #13
  %.not4 = icmp eq i64 %5, %6
  br i1 %.not4, label %7, label %8

7:                                                ; preds = %3
  store i16 1, ptr %0, align 8
  br label %8

8:                                                ; preds = %3, %2, %7
  ret void
}